; ModuleID = '31/1173.c'
source_filename = "31/1173.c"
target datalayout = "e-m:e-p270:32:32-p271:32:32-p272:64:64-i64:64-f80:128-n8:16:32:64-S128"
target triple = "x86_64-pc-linux-gnu"

; Function Attrs: noinline nounwind uwtable
define dso_local void @append() #0 {
  %1 = alloca [50 x i8], align 16
  %2 = getelementptr inbounds [50 x i8], [50 x i8]* %1, i64 0, i64 0
  %3 = call i32 (i8*, ...) bitcast (i32 (...)* @gets to i32 (i8*, ...)*)(i8* %2)
  %4 = getelementptr inbounds [50 x i8], [50 x i8]* %1, i64 0, i64 0
  %5 = load i8, i8* %4, align 16
  %6 = sext i8 %5 to i32
  %7 = icmp ne i32 %6, 101
  br i1 %7, label %8, label %11

8:                                                ; preds = %0
  call void @append()
  %9 = getelementptr inbounds [50 x i8], [50 x i8]* %1, i64 0, i64 0
  %10 = call i32 @puts(i8* %9)
  br label %11

11:                                               ; preds = %8, %0
  ret void
}

declare dso_local i32 @gets(...) #1

declare dso_local i32 @puts(i8*) #1

; Function Attrs: noinline nounwind uwtable
define dso_local void @main() #0 {
  call void @append()
  ret void
}


!llvm.module.flags = !{!0}
!llvm.ident = !{!1}

!0 = !{i32 1, !"wchar_size", i32 4}
!1 = !{!"clang version 10.0.0-4ubuntu1 "}
